target datalayout = "e-m:e-p270:32:32-p271:32:32-p272:64:64-i64:64-i128:128-f80:128-n8:16:32:64-S128"
target triple = "x86_64-pc-linux-gnu"

%struct.hm_header_st = type { i8, i64, i16, i64, i64, i32, %struct.dtls1_retransmit_state }
%struct.dtls1_retransmit_state = type { ptr, ptr }
%struct.ssl_connection_st = type { %struct.ssl_st, ptr, i32, ptr, ptr, ptr, i32, ptr, i32, i32, i32, i32, %struct.OSSL_TIME, %struct.OSSL_TIME, %struct.ossl_statem_st, i32, ptr, ptr, i64, i64, i64, %struct.ossl_quic_tls_callbacks_st, ptr, ptr, %struct.anon, ptr, ptr, ptr, i32, ptr, %struct.ssl_dane_st, ptr, ptr, ptr, ptr, i32, [64 x i8], [64 x i8], [64 x i8], [64 x i8], [64 x i8], [64 x i8], [64 x i8], [64 x i8], [64 x i8], [64 x i8], [64 x i8], [64 x i8], ptr, [64 x i8], i64, i32, i64, [32 x i8], ptr, ptr, ptr, i64, ptr, [32 x i8], i64, i32, ptr, ptr, i32, i32, ptr, ptr, ptr, ptr, ptr, i64, ptr, ptr, i64, i32, i32, i32, i64, i32, i32, i64, i64, i64, %struct.anon.1, ptr, i32, ptr, ptr, ptr, i32, ptr, ptr, ptr, i32, i32, i32, i32, ptr, i64, i32, ptr, %struct.srp_ctx_st, ptr, %struct.record_layer_st, ptr, ptr, ptr, ptr, i64, i32, i32, i32, i64, i64, i64, ptr, ptr, ptr, ptr, ptr, i64, ptr, i64, ptr, i64 }
%struct.ssl_st = type { i32, ptr, ptr, ptr, %struct.CRYPTO_REF_COUNT, ptr, %struct.crypto_ex_data_st }
%struct.CRYPTO_REF_COUNT = type { i32 }
%struct.crypto_ex_data_st = type { ptr, ptr }
%struct.OSSL_TIME = type { i64 }
%struct.ossl_statem_st = type { i32, i32, i32, i32, i32, i32, i32, i32, i32, i32, i32, i32, i32, ptr, ptr, ptr, i8 }
%struct.ossl_quic_tls_callbacks_st = type { ptr, ptr, ptr, ptr, ptr, ptr }
%struct.anon = type { i64, [32 x i8], [32 x i8], ptr, ptr, i32, i32, i32, i32, [2 x i8], i32, i32, i32, i32, %struct.anon.0, [64 x i8], i64, [64 x i8], i64, i32, i32, ptr, i64, ptr, i64, i32, i8, i8, i16, ptr, i16 }
%struct.anon.0 = type { [128 x i8], i64, [128 x i8], i64, i64, i32, ptr, ptr, [4 x ptr], [4 x i16], i64, i32, ptr, i64, ptr, i64, ptr, ptr, ptr, i32, i64, ptr, i32, ptr, i64, ptr, i64, ptr, i64, ptr, ptr, ptr, ptr, i64, i64, ptr, ptr, i32, i32, i32, i32 }
%struct.ssl_dane_st = type { ptr, ptr, ptr, ptr, ptr, i32, i32, i32, i64 }
%struct.anon.1 = type { [29 x i8], ptr, ptr, ptr, i32, ptr, i16, i32, %struct.anon.2, i32, i32, i64, ptr, i64, ptr, i64, ptr, i64, ptr, i64, ptr, i64, ptr, ptr, ptr, ptr, ptr, ptr, ptr, i64, ptr, i64, i32, i32, i32, i32, ptr, i64, i32, i8, i32, [4 x i32], i32, i8, i8, i8, i8 }
%struct.anon.2 = type { ptr, ptr, ptr, i64 }
%struct.srp_ctx_st = type { ptr, ptr, ptr, ptr, ptr, ptr, ptr, ptr, ptr, ptr, ptr, ptr, ptr, ptr, i32, i64 }
%struct.record_layer_st = type { ptr, ptr, ptr, ptr, ptr, ptr, ptr, ptr, i64, i32, i64, [4 x i8], i64, i64, i8, ptr, i32, ptr, ptr, ptr, i64, i64, i64, i64, [32 x %struct.tls_record_st] }
%struct.tls_record_st = type { ptr, i32, i8, ptr, ptr, i64, i64, i16, [8 x i8] }
%struct.dtls1_state_st = type { [255 x i8], i64, i32, i16, i16, i16, ptr, ptr, i64, i64, %struct.hm_header_st, %struct.hm_header_st, i32, %struct.OSSL_TIME, i32, i32, ptr }

@.str = private unnamed_addr constant [36 x i8] c"../openssl/ssl/statem/statem_dtls.c\00", align 1
@__func__.dtls_construct_change_cipher_spec = private unnamed_addr constant [34 x i8] c"dtls_construct_change_cipher_spec\00", align 1

; Function Attrs: nounwind uwtable
define i32 @dtls_construct_change_cipher_spec(ptr noundef %0, ptr noundef %1) #0 {
  %3 = alloca i32, align 4
  %4 = alloca ptr, align 8
  %5 = alloca ptr, align 8
  store ptr %0, ptr %4, align 8, !tbaa !19
  store ptr %1, ptr %5, align 8, !tbaa !129
  %6 = load ptr, ptr %4, align 8, !tbaa !19
  %7 = getelementptr inbounds nuw %struct.ssl_connection_st, ptr %6, i32 0, i32 2
  %8 = load i32, ptr %7, align 8, !tbaa !102
  %9 = icmp eq i32 %8, 256
  br i1 %9, label %10, label %29

10:                                               ; preds = %2
  %11 = load ptr, ptr %4, align 8, !tbaa !19
  %12 = getelementptr inbounds nuw %struct.ssl_connection_st, ptr %11, i32 0, i32 25
  %13 = load ptr, ptr %12, align 8, !tbaa !80
  %14 = getelementptr inbounds nuw %struct.dtls1_state_st, ptr %13, i32 0, i32 4
  %15 = load i16, ptr %14, align 2, !tbaa !128
  %16 = add i16 %15, 1
  store i16 %16, ptr %14, align 2, !tbaa !128
  %17 = load ptr, ptr %5, align 8, !tbaa !129
  %18 = load ptr, ptr %4, align 8, !tbaa !19
  %19 = getelementptr inbounds nuw %struct.ssl_connection_st, ptr %18, i32 0, i32 25
  %20 = load ptr, ptr %19, align 8, !tbaa !80
  %21 = getelementptr inbounds nuw %struct.dtls1_state_st, ptr %20, i32 0, i32 3
  %22 = load i16, ptr %21, align 4, !tbaa !131
  %23 = zext i16 %22 to i64
  %24 = call i32 @WPACKET_put_bytes__(ptr noundef %17, i64 noundef %23, i64 noundef 2)
  %25 = icmp ne i32 %24, 0
  br i1 %25, label %28, label %26

26:                                               ; preds = %10
  call void @ERR_new()
  call void @ERR_set_debug(ptr noundef @.str, i32 noundef 1003, ptr noundef @__func__.dtls_construct_change_cipher_spec)
  %27 = load ptr, ptr %4, align 8, !tbaa !19
  call void (ptr, i32, i32, ptr, ...) @ossl_statem_fatal(ptr noundef %27, i32 noundef 80, i32 noundef 786691, ptr noundef null)
  store i32 0, ptr %3, align 4
  br label %30

28:                                               ; preds = %10
  br label %29

29:                                               ; preds = %28, %2
  store i32 1, ptr %3, align 4
  br label %30

30:                                               ; preds = %29, %26
  %31 = load i32, ptr %3, align 4
  ret i32 %31
}