; Function Attrs: nounwind uwtable
define range(i32 0, 2) i32 @dtls_construct_change_cipher_spec(ptr noundef %0, ptr noundef %1) local_unnamed_addr #0 {
  %3 = getelementptr inbounds nuw i8, ptr %0, i64 72
  %4 = load i32, ptr %3, align 8, !tbaa !100
  %5 = icmp eq i32 %4, 256
  br i1 %5, label %6, label %17

6:                                                ; preds = %2
  %7 = getelementptr inbounds nuw i8, ptr %0, i64 1264
  %8 = load ptr, ptr %7, align 8, !tbaa !74
  %9 = getelementptr inbounds nuw i8, ptr %8, i64 270
  %10 = load i16, ptr %9, align 2, !tbaa !117
  %11 = add i16 %10, 1
  store i16 %11, ptr %9, align 2, !tbaa !117
  %12 = getelementptr inbounds nuw i8, ptr %8, i64 268
  %13 = load i16, ptr %12, align 4, !tbaa !133
  %14 = zext i16 %13 to i64
  %15 = tail call i32 @WPACKET_put_bytes__(ptr noundef %1, i64 noundef %14, i64 noundef 2) #9
  %.not = icmp eq i32 %15, 0
  br i1 %.not, label %16, label %17

16:                                               ; preds = %6
  tail call void @ERR_new() #9
  tail call void @ERR_set_debug(ptr noundef nonnull @.str, i32 noundef 1003, ptr noundef nonnull @__func__.dtls_construct_change_cipher_spec) #9
  tail call void (ptr, i32, i32, ptr, ...) @ossl_statem_fatal(ptr noundef nonnull %0, i32 noundef 80, i32 noundef 786691, ptr noundef null) #9
  br label %17

17:                                               ; preds = %2, %6, %16
  %.0 = phi i32 [ 0, %16 ], [ 1, %6 ], [ 1, %2 ]
  ret i32 %.0
}